target datalayout = "e-m:e-p270:32:32-p271:32:32-p272:64:64-i64:64-i128:128-f80:128-n8:16:32:64-S128"
target triple = "x86_64-pc-linux-gnu"

%struct.exr_attr_chlist_t = type { i32, i32, ptr }
%struct.exr_attr_chlist_entry_t = type { %struct.exr_attr_string_t, i32, i8, [3 x i8], i32, i32 }
%struct.exr_attr_string_t = type { i32, i32, ptr }

; Function Attrs: mustprogress uwtable
define noundef ptr @_ZNK7Imf_3_47Context11findChannelEiPKc(ptr noundef nonnull align 8 dereferenceable(16) %0, i32 noundef %1, ptr noundef %2) #4 align 2 {
  %4 = alloca ptr, align 8
  %5 = alloca ptr, align 8
  %6 = alloca i32, align 4
  %7 = alloca ptr, align 8
  %8 = alloca ptr, align 8
  %9 = alloca i32, align 4
  %10 = alloca i32, align 4
  %11 = alloca i32, align 4
  %12 = alloca ptr, align 8
  store ptr %0, ptr %5, align 8, !tbaa !3
  store i32 %1, ptr %6, align 4, !tbaa !19
  store ptr %2, ptr %7, align 8, !tbaa !15
  %13 = load ptr, ptr %5, align 8
  call void @llvm.lifetime.start.p0(i64 8, ptr %8) #3
  %14 = load i32, ptr %6, align 4, !tbaa !19
  %15 = call noundef ptr @_ZNK7Imf_3_47Context8channelsEi(ptr noundef nonnull align 8 dereferenceable(16) %13, i32 noundef %14)
  store ptr %15, ptr %8, align 8, !tbaa !41
  call void @llvm.lifetime.start.p0(i64 4, ptr %9) #3
  %16 = load ptr, ptr %7, align 8, !tbaa !15
  %17 = call i64 @strlen(ptr noundef %16) #11
  %18 = trunc i64 %17 to i32
  store i32 %18, ptr %9, align 4, !tbaa !19
  call void @llvm.lifetime.start.p0(i64 4, ptr %10) #3
  store i32 0, ptr %10, align 4, !tbaa !19
  br label %19

19:                                               ; preds = %55, %3
  %20 = load i32, ptr %10, align 4, !tbaa !19
  %21 = load ptr, ptr %8, align 8, !tbaa !41
  %22 = getelementptr inbounds nuw %struct.exr_attr_chlist_t, ptr %21, i32 0, i32 0
  %23 = load i32, ptr %22, align 8, !tbaa !42
  %24 = icmp slt i32 %20, %23
  br i1 %24, label %26, label %25

25:                                               ; preds = %19
  store i32 2, ptr %11, align 4
  br label %58

26:                                               ; preds = %19
  call void @llvm.lifetime.start.p0(i64 8, ptr %12) #3
  %27 = load ptr, ptr %8, align 8, !tbaa !41
  %28 = getelementptr inbounds nuw %struct.exr_attr_chlist_t, ptr %27, i32 0, i32 2
  %29 = load ptr, ptr %28, align 8, !tbaa !44
  %30 = load i32, ptr %10, align 4, !tbaa !19
  %31 = sext i32 %30 to i64
  %32 = getelementptr inbounds %struct.exr_attr_chlist_entry_t, ptr %29, i64 %31
  store ptr %32, ptr %12, align 8, !tbaa !41
  %33 = load ptr, ptr %12, align 8, !tbaa !41
  %34 = getelementptr inbounds nuw %struct.exr_attr_chlist_entry_t, ptr %33, i32 0, i32 0
  %35 = getelementptr inbounds nuw %struct.exr_attr_string_t, ptr %34, i32 0, i32 0
  %36 = load i32, ptr %35, align 8, !tbaa !45
  %37 = load i32, ptr %9, align 4, !tbaa !19
  %38 = icmp eq i32 %36, %37
  br i1 %38, label %39, label %51

39:                                               ; preds = %26
  %40 = load ptr, ptr %7, align 8, !tbaa !15
  %41 = load ptr, ptr %12, align 8, !tbaa !41
  %42 = getelementptr inbounds nuw %struct.exr_attr_chlist_entry_t, ptr %41, i32 0, i32 0
  %43 = getelementptr inbounds nuw %struct.exr_attr_string_t, ptr %42, i32 0, i32 2
  %44 = load ptr, ptr %43, align 8, !tbaa !49
  %45 = load i32, ptr %9, align 4, !tbaa !19
  %46 = sext i32 %45 to i64
  %47 = call i32 @memcmp(ptr noundef %40, ptr noundef %44, i64 noundef %46) #11
  %48 = icmp eq i32 0, %47
  br i1 %48, label %49, label %51

49:                                               ; preds = %39
  %50 = load ptr, ptr %12, align 8, !tbaa !41
  store ptr %50, ptr %4, align 8
  store i32 1, ptr %11, align 4
  br label %52

51:                                               ; preds = %39, %26
  store i32 0, ptr %11, align 4
  br label %52

52:                                               ; preds = %51, %49
  call void @llvm.lifetime.end.p0(i64 8, ptr %12) #3
  %53 = load i32, ptr %11, align 4
  switch i32 %53, label %58 [
    i32 0, label %54
  ]

54:                                               ; preds = %52
  br label %55

55:                                               ; preds = %54
  %56 = load i32, ptr %10, align 4, !tbaa !19
  %57 = add nsw i32 %56, 1
  store i32 %57, ptr %10, align 4, !tbaa !19
  br label %19, !llvm.loop !50

58:                                               ; preds = %52, %25
  call void @llvm.lifetime.end.p0(i64 4, ptr %10) #3
  %59 = load i32, ptr %11, align 4
  switch i32 %59, label %61 [
    i32 2, label %60
  ]

60:                                               ; preds = %58
  store ptr null, ptr %4, align 8
  store i32 1, ptr %11, align 4
  br label %61

61:                                               ; preds = %60, %58
  call void @llvm.lifetime.end.p0(i64 4, ptr %9) #3
  call void @llvm.lifetime.end.p0(i64 8, ptr %8) #3
  %62 = load ptr, ptr %4, align 8
  ret ptr %62
}

; Function Attrs: mustprogress uwtable
define noundef zeroext i1 @_ZNK7Imf_3_47Context10hasChannelEiPKc(ptr noundef nonnull align 8 dereferenceable(16) %0, i32 noundef %1, ptr noundef %2) #4 align 2 {
  %4 = alloca ptr, align 8
  %5 = alloca i32, align 4
  %6 = alloca ptr, align 8
  store ptr %0, ptr %4, align 8, !tbaa !3
  store i32 %1, ptr %5, align 4, !tbaa !19
  store ptr %2, ptr %6, align 8, !tbaa !15
  %7 = load ptr, ptr %4, align 8
  %8 = load i32, ptr %5, align 4, !tbaa !19
  %9 = load ptr, ptr %6, align 8, !tbaa !15
  %10 = call noundef ptr @_ZNK7Imf_3_47Context11findChannelEiPKc(ptr noundef nonnull align 8 dereferenceable(16) %7, i32 noundef %8, ptr noundef %9)
  %11 = icmp ne ptr %10, null
  ret i1 %11
}