; Function Attrs: mustprogress uwtable
define noundef zeroext i1 @_ZNK7Imf_3_47Context10hasChannelEiPKc(ptr noundef nonnull readonly align 8 captures(none) dereferenceable(16) %0, i32 noundef %1, ptr noundef readonly captures(none) %2) local_unnamed_addr #3 align 2 {
  %4 = tail call noundef ptr @_ZNK7Imf_3_47Context8channelsEi(ptr noundef nonnull readonly align 8 dereferenceable(16) %0, i32 noundef %1)
  %5 = tail call i64 @strlen(ptr noundef nonnull readonly dereferenceable(1) %2) #34
  %6 = trunc i64 %5 to i32
  %7 = load i32, ptr %4, align 8, !tbaa !31
  %.not24.i = icmp sgt i32 %7, 0
  br i1 %.not24.i, label %.lr.ph.i, label %_ZNK7Imf_3_47Context11findChannelEiPKc.exit

.lr.ph.i:                                         ; preds = %3
  %8 = getelementptr inbounds nuw i8, ptr %4, i64 8
  %9 = load ptr, ptr %8, align 8, !tbaa !33
  %sext.i = shl i64 %5, 32
  %10 = ashr exact i64 %sext.i, 32
  %wide.trip.count.i = zext nneg i32 %7 to i64
  br label %11

11:                                               ; preds = %19, %.lr.ph.i
  %indvars.iv.i = phi i64 [ 0, %.lr.ph.i ], [ %indvars.iv.next.i, %19 ]
  %12 = getelementptr inbounds nuw %struct.exr_attr_chlist_entry_t, ptr %9, i64 %indvars.iv.i
  %13 = load i32, ptr %12, align 8, !tbaa !34
  %14 = icmp eq i32 %13, %6
  br i1 %14, label %15, label %19

15:                                               ; preds = %11
  %16 = getelementptr inbounds nuw i8, ptr %12, i64 8
  %17 = load ptr, ptr %16, align 8, !tbaa !38
  %bcmp.i = tail call i32 @bcmp(ptr nonnull readonly %2, ptr %17, i64 %10)
  %18 = icmp eq i32 %bcmp.i, 0
  br i1 %18, label %_ZNK7Imf_3_47Context11findChannelEiPKc.exit, label %19

19:                                               ; preds = %15, %11
  %indvars.iv.next.i = add nuw nsw i64 %indvars.iv.i, 1
  %exitcond.not.i = icmp eq i64 %indvars.iv.next.i, %wide.trip.count.i
  br i1 %exitcond.not.i, label %_ZNK7Imf_3_47Context11findChannelEiPKc.exit, label %11, !llvm.loop !39

_ZNK7Imf_3_47Context11findChannelEiPKc.exit:      ; preds = %15, %19, %3
  %spec.select.i = phi i1 [ false, %3 ], [ false, %19 ], [ true, %15 ]
  ret i1 %spec.select.i
}